; Function Attrs: mustprogress uwtable
define dso_local void @_ZNK16ExpressionAssign14get_qualifiersEv(ptr dead_on_unwind noalias writable sret(%class.CVQualifiers) align 8 %0, ptr nocapture noundef nonnull readonly align 8 dereferenceable(32) %1) unnamed_addr #3 align 2 {
  %3 = getelementptr inbounds i8, ptr %1, i64 24
  %4 = load ptr, ptr %3, align 8
  %5 = getelementptr inbounds i8, ptr %4, i64 40
  %6 = load ptr, ptr %5, align 8
  %7 = load ptr, ptr %6, align 8
  %8 = getelementptr inbounds i8, ptr %7, i64 32
  %9 = load ptr, ptr %8, align 8
  tail call void %9(ptr dead_on_unwind writable sret(%class.CVQualifiers) align 8 %0, ptr noundef nonnull align 8 dereferenceable(41) %6)
  ret void
}